; Function Attrs: inlinehint mustprogress nounwind uwtable
define internal fastcc void @_ZN12_GLOBAL__N_114ql_dsp_macc_pm19state_ql_dsp_macc_tD2Ev(ptr noundef nonnull readonly align 8 captures(none) dereferenceable(46) %0) unnamed_addr #4 align 2 personality ptr @__gxx_personality_v0 {
  %2 = getelementptr inbounds nuw i8, ptr %0, i64 40
  %3 = load i32, ptr %2, align 8, !tbaa !104
  %4 = load i8, ptr @_ZN5Yosys5RTLIL8IdString17destruct_guard_okE, align 1, !tbaa !118, !range !119, !noundef !120
  %5 = trunc nuw i8 %4 to i1
  %6 = icmp ne i32 %3, 0
  %or.cond.i.i = and i1 %6, %5
  br i1 %or.cond.i.i, label %7, label %_ZN5Yosys5RTLIL8IdStringD2Ev.exit

7:                                                ; preds = %1
  %8 = sext i32 %3 to i64
  %9 = load ptr, ptr @_ZN5Yosys5RTLIL8IdString24global_refcount_storage_E, align 8, !tbaa !121
  %10 = getelementptr inbounds nuw i32, ptr %9, i64 %8
  %11 = load i32, ptr %10, align 4, !tbaa !122
  %12 = add nsw i32 %11, -1
  store i32 %12, ptr %10, align 4, !tbaa !122
  %13 = icmp sgt i32 %11, 1
  br i1 %13, label %_ZN5Yosys5RTLIL8IdStringD2Ev.exit, label %14

14:                                               ; preds = %7
  invoke void @_ZN5Yosys5RTLIL8IdString14free_referenceEi(i32 noundef %3)
          to label %._ZN5Yosys5RTLIL8IdStringD2Ev.exit_crit_edge unwind label %15

._ZN5Yosys5RTLIL8IdStringD2Ev.exit_crit_edge:     ; preds = %14
  %.pre = load i8, ptr @_ZN5Yosys5RTLIL8IdString17destruct_guard_okE, align 1, !tbaa !118, !range !119
  br label %_ZN5Yosys5RTLIL8IdStringD2Ev.exit

15:                                               ; preds = %14
  %16 = landingpad { ptr, i32 }
          catch ptr null
  %17 = extractvalue { ptr, i32 } %16, 0
  tail call void @__clang_call_terminate(ptr %17) #29
  unreachable

_ZN5Yosys5RTLIL8IdStringD2Ev.exit:                ; preds = %._ZN5Yosys5RTLIL8IdStringD2Ev.exit_crit_edge, %1, %7
  %18 = phi i8 [ %.pre, %._ZN5Yosys5RTLIL8IdStringD2Ev.exit_crit_edge ], [ %4, %1 ], [ 1, %7 ]
  %19 = getelementptr inbounds nuw i8, ptr %0, i64 8
  %20 = load i32, ptr %19, align 8, !tbaa !104
  %21 = trunc nuw i8 %18 to i1
  %22 = icmp ne i32 %20, 0
  %or.cond.i.i1 = and i1 %22, %21
  br i1 %or.cond.i.i1, label %23, label %_ZN5Yosys5RTLIL8IdStringD2Ev.exit2

23:                                               ; preds = %_ZN5Yosys5RTLIL8IdStringD2Ev.exit
  %24 = sext i32 %20 to i64
  %25 = load ptr, ptr @_ZN5Yosys5RTLIL8IdString24global_refcount_storage_E, align 8, !tbaa !121
  %26 = getelementptr inbounds nuw i32, ptr %25, i64 %24
  %27 = load i32, ptr %26, align 4, !tbaa !122
  %28 = add nsw i32 %27, -1
  store i32 %28, ptr %26, align 4, !tbaa !122
  %29 = icmp sgt i32 %27, 1
  br i1 %29, label %_ZN5Yosys5RTLIL8IdStringD2Ev.exit2, label %30

30:                                               ; preds = %23
  invoke void @_ZN5Yosys5RTLIL8IdString14free_referenceEi(i32 noundef %20)
          to label %_ZN5Yosys5RTLIL8IdStringD2Ev.exit2 unwind label %31

31:                                               ; preds = %30
  %32 = landingpad { ptr, i32 }
          catch ptr null
  %33 = extractvalue { ptr, i32 } %32, 0
  tail call void @__clang_call_terminate(ptr %33) #29
  unreachable

_ZN5Yosys5RTLIL8IdStringD2Ev.exit2:               ; preds = %_ZN5Yosys5RTLIL8IdStringD2Ev.exit, %23, %30
  ret void
}